EXPORTS
    _Z11WRLoadImageP9lua_State @1
    _Z12WRCropWindowP9lua_State @2
    _Z12WRSaveToFileP9lua_State @3
    _Z13lua_KeyActionP9lua_State @4
    _Z13lua_MouseClipP9lua_State @5
    _Z14lua_FindWindowP9lua_State @6
    _Z14lua_MessageBoxP9lua_State @7
    _Z14lua_SetTopMostP9lua_State @8
    _Z14lua_SystemCallP9lua_State @9
    _Z15EnumWindowsProcP6HWND__l@8 @10
    _Z15lua_IsDirectoryP9lua_State @11
    _Z15lua_MouseActionP9lua_State @12
    _Z15lua_SendMessageP9lua_State @13
    _Z17lua_CaptureWindowP9lua_State @14
    _Z17lua_GetWindowSizeP9lua_State @15
    _Z17lua_GetWindowTextP9lua_State @16
    _Z17lua_MakeDirectoryP9lua_State @17
    _Z17lua_SetSystemTimeP9lua_State @18
    _Z18lua_DirectoryFilesP9lua_State @19
    _Z18lua_GetOpenWindowsP9lua_State @20
    _Z18lua_OpenFileDialogP9lua_State @21
    _Z18lua_SaveFileDialogP9lua_State @22
    _Z19lua_CreateSubWindowP9lua_State @23
    _Z19lua_GetWindowParentP9lua_State @24
    _Z19lua_HideFromTaskbarP9lua_State @25
    _Z19lua_IsWindowVisibleP9lua_State @26
    _Z19lua_SetWindowParentP9lua_State @27
    _Z19lua_SetWindowSplashP9lua_State @28
    _Z19lua_register_winregP9lua_State @29
    _Z21lua_DirectoryFilesWinP9lua_State @30
    _Z23lua_GetForegroundWindowP9lua_State @31
    _Z6WRCallP9lua_State @32
    _Z8WRCreateP9lua_State @33
    _Z9WRCollectP9lua_State @34
    _ZN9WinRegion10saveToFileESs @35
    _ZN9WinRegion11removePointEjj @36
    _ZN9WinRegion12loadFromFileESs @37
    _ZN9WinRegion12safeAddPointEjj @38
    _ZN9WinRegion15safeRemovePointEjj @39
    _ZN9WinRegion19loadFromImageBufferEPhjj @40
    _ZN9WinRegion5clearEv @41
    _ZN9WinRegion8addPointEjj @42
    _ZN9WinRegionC1ESs @43
    _ZN9WinRegionC1Ejj @44
    _ZN9WinRegionC1Ev @45
    _ZN9WinRegionC2ESs @46
    _ZN9WinRegionC2Ejj @47
    _ZN9WinRegionC2Ev @48
    _ZN9WinRegionD1Ev @49
    _ZN9WinRegionD2Ev @50
    luaopen_libwin @51
